(dp1
S'files'
p2
(dp3
S'geolocator_app_geolocator'
p4
(dp5
S'index'
p6
(dp7
S'html_filename'
p8
S'geolocator_app_geolocator.html'
p9
sS'name'
p10
S'geolocator/app/geolocator'
p11
sS'nums'
p12
ccopy_reg
_reconstructor
p13
(ccoverage.results
Numbers
p14
c__builtin__
object
p15
NtRp16
(dp17
S'n_files'
p18
I1
sS'n_branches'
p19
I0
sS'n_statements'
p20
I225
sS'n_excluded'
p21
I0
sS'n_partial_branches'
p22
I0
sS'n_missing'
p23
I52
sS'n_missing_branches'
p24
I0
sbssS'hash'
p25
S'\xbdC\x03\x8f\x99\xec\xd1\xe4\x88m#5+\x98q\xdb'
p26
ssS'geolocator_app_tests_test_geolocator'
p27
(dp28
S'index'
p29
(dp30
S'html_filename'
p31
S'geolocator_app_tests_test_geolocator.html'
p32
sS'name'
p33
S'geolocator/app/tests/test_geolocator'
p34
sS'nums'
p35
g13
(g14
g15
NtRp36
(dp37
g18
I1
sg19
I0
sg20
I189
sg21
I0
sg22
I0
sg23
I0
sg24
I0
sbssS'hash'
p38
S']bu6k\xb8BP\xa2w\xc6\xa9\x1b\x15\xc1"'
p39
ssS'geolocator_app_tests_test_weighter'
p40
(dp41
g29
(dp42
g8
S'geolocator_app_tests_test_weighter.html'
p43
sg10
S'geolocator/app/tests/test_weighter'
p44
sg12
g13
(g14
g15
NtRp45
(dp46
g18
I1
sg19
I0
sg20
I659
sg21
I0
sg22
I0
sg23
I0
sg24
I0
sbssg38
S':\xfcTQ\xc2\x89\xb3\x19G\xf6\x13ks\xaa\x08\xc2'
p47
ssS'geolocator_app___init__'
p48
(dp49
g6
(dp50
S'html_filename'
p51
S'geolocator_app___init__.html'
p52
sS'name'
p53
S'geolocator/app/__init__'
p54
sS'nums'
p55
g13
(g14
g15
NtRp56
(dp57
g18
I1
sg19
I0
sg20
I12
sg21
I0
sg22
I0
sg23
I0
sg24
I0
sbssg25
S'\xae\xc0[\x8e\xdc@Aej\\nn\xf2\xd6\xd3,'
p58
ssS'geolocator_app_tests_test_models'
p59
(dp60
S'index'
p61
(dp62
g31
S'geolocator_app_tests_test_models.html'
p63
sg33
S'geolocator/app/tests/test_models'
p64
sg35
g13
(g14
g15
NtRp65
(dp66
g18
I1
sg19
I0
sg20
I91
sg21
I0
sg22
I0
sg23
I0
sg24
I0
sbssS'hash'
p67
S'\x0fc\x9f\xb0{\x02\xba\x1b\xce\xb0[\xde\x9b}\x97\xc1'
p68
ssS'geolocator_app_nlp'
p69
(dp70
g6
(dp71
g8
S'geolocator_app_nlp.html'
p72
sg10
S'geolocator/app/nlp'
p73
sg12
g13
(g14
g15
NtRp74
(dp75
g18
I1
sg19
I0
sg20
I108
sg21
I0
sg22
I0
sg23
I0
sg24
I0
sbssg25
S'd\xc9\xec\x97\xbd\xae\xdes\x15D\xc7L\xe8\xfe]r'
p76
ssS'geolocator_app_views'
p77
(dp78
g6
(dp79
g31
S'geolocator_app_views.html'
p80
sg33
S'geolocator/app/views'
p81
sg35
g13
(g14
g15
NtRp82
(dp83
g18
I1
sg19
I0
sg20
I76
sg21
I0
sg22
I0
sg23
I56
sg24
I0
sbssg25
S'-\xfd\x9b\xd1\xb3|\xeeQ\xbd\xe4\x90\xc8\xc3\xb2\x1e\x00'
p84
ssS'geolocator_config'
p85
(dp86
g6
(dp87
S'html_filename'
p88
S'geolocator_config.html'
p89
sS'name'
p90
S'geolocator/config'
p91
sS'nums'
p92
g13
(g14
g15
NtRp93
(dp94
g18
I1
sg19
I0
sg20
I13
sg21
I0
sg22
I0
sg23
I0
sg24
I0
sbssg25
S'\xb5K\x14S\x9a\x0e\x9e\xa8\x15\xa5\xd1\xb0g,\xddC'
p95
ssS'geolocator_app_tests_test_views_1'
p96
(dp97
S'index'
p98
(dp99
g31
S'geolocator_app_tests_test_views_1.html'
p100
sg33
S'geolocator/app/tests/test_views_1'
p101
sg35
g13
(g14
g15
NtRp102
(dp103
g18
I1
sg19
I0
sg20
I43
sg21
I0
sg22
I0
sg23
I0
sg24
I0
sbssS'hash'
p104
S'\x0b\xbb\xe8\x8b\x9f\xd9\xde"\xe8\xcf=n{\xdd\x99\xdc'
p105
ssS'geolocator_app_tests___init__'
p106
(dp107
g6
(dp108
g51
S'geolocator_app_tests___init__.html'
p109
sg53
S'geolocator/app/tests/__init__'
p110
sg55
g13
(g14
g15
NtRp111
(dp112
g18
I1
sg19
I0
sg20
I2
sg21
I0
sg22
I0
sg23
I0
sg24
I0
sbssg25
S'\x1a7\xc7i\xc3X\xa5\xc4\x03\xd0\x897\xb1\xb1\xd7@'
p113
ssS'geolocator_app_models'
p114
(dp115
g6
(dp116
g31
S'geolocator_app_models.html'
p117
sg33
S'geolocator/app/models'
p118
sg35
g13
(g14
g15
NtRp119
(dp120
g18
I1
sg19
I0
sg20
I30
sg21
I0
sg22
I0
sg23
I0
sg24
I0
sbssg25
S'u\xd0N\xe6.\xb5\x89NPJ\xbf\xe5xj\x18\xc9'
p121
ssS'geolocator_app_tests_test_nlp'
p122
(dp123
g6
(dp124
g8
S'geolocator_app_tests_test_nlp.html'
p125
sg10
S'geolocator/app/tests/test_nlp'
p126
sg12
g13
(g14
g15
NtRp127
(dp128
g18
I1
sg19
I0
sg20
I237
sg21
I0
sg22
I0
sg23
I0
sg24
I0
sbssg25
S'\xab\xed\x8b\xd2\x1c\xb58\xde\xbcl"\x8d1\x87"`'
p129
ssS'geolocator_app_tests_test_geolocator_2'
p130
(dp131
S'index'
p132
(dp133
g31
S'geolocator_app_tests_test_geolocator_2.html'
p134
sg33
S'geolocator/app/tests/test_geolocator_2'
p135
sg35
g13
(g14
g15
NtRp136
(dp137
g18
I1
sg19
I0
sg20
I112
sg21
I0
sg22
I0
sg23
I13
sg24
I0
sbssS'hash'
p138
S'CuBC\x02\x1b\x00\xff\xf6I\xed\xa7\xb2-\x1a\x8e'
p139
ssS'geolocator_app_services'
p140
(dp141
g6
(dp142
S'html_filename'
p143
S'geolocator_app_services.html'
p144
sS'name'
p145
S'geolocator/app/services'
p146
sS'nums'
p147
g13
(g14
g15
NtRp148
(dp149
g18
I1
sg19
I0
sg20
I8
sg21
I0
sg22
I0
sg23
I1
sg24
I0
sbssg25
S'\xa7m&$%7B\xf7\xae\xf3A\x16\xdbI\xb4_'
p150
ssS'geolocator_run'
p151
(dp152
g6
(dp153
S'html_filename'
p154
S'geolocator_run.html'
p155
sS'name'
p156
S'geolocator/run'
p157
sS'nums'
p158
g13
(g14
g15
NtRp159
(dp160
g18
I1
sg19
I0
sg20
I10
sg21
I0
sg22
I0
sg23
I10
sg24
I0
sbssg25
S'\x1dt\xec\xb8\x0e\x8a\xd9\xe2:\xbb\xdeC\xe3\xac\xdau'
p161
ssS'geolocator_app_tests_test_nlp_validation'
p162
(dp163
g132
(dp164
S'html_filename'
p165
S'geolocator_app_tests_test_nlp_validation.html'
p166
sS'name'
p167
S'geolocator/app/tests/test_nlp_validation'
p168
sS'nums'
p169
g13
(g14
g15
NtRp170
(dp171
g18
I1
sg19
I0
sg20
I93
sg21
I0
sg22
I0
sg23
I0
sg24
I0
sbssg138
S'\xe6\xca\xd3Z\x0c\xe8\xa8\xe4\x0e\xad\x0b\xb9\xa5F\xbe\xa1'
p172
ssS'geolocator_test_config'
p173
(dp174
S'index'
p175
(dp176
g154
S'geolocator_test_config.html'
p177
sg156
S'geolocator/test_config'
p178
sg158
g13
(g14
g15
NtRp179
(dp180
g18
I1
sg19
I0
sg20
I18
sg21
I0
sg22
I0
sg23
I0
sg24
I0
sbssS'hash'
p181
S'\x94AQ\rE\r\xec\xdd\xe3\tT\xd2;\xea1z'
p182
ssS'geolocator_app_tests_test_nlp_old'
p183
(dp184
g6
(dp185
g143
S'geolocator_app_tests_test_nlp_old.html'
p186
sg145
S'geolocator/app/tests/test_nlp_old'
p187
sg147
g13
(g14
g15
NtRp188
(dp189
g18
I1
sg19
I0
sg20
I0
sg21
I0
sg22
I0
sg23
I0
sg24
I0
sbssg25
S'H\xc45\xebeG\xdfO\x93h\x98X\xb6\xcc#\x94'
p190
ssS'geolocator_app_weighter'
p191
(dp192
g29
(dp193
g8
S'geolocator_app_weighter.html'
p194
sg10
S'geolocator/app/weighter'
p195
sg12
g13
(g14
g15
NtRp196
(dp197
g18
I1
sg19
I0
sg20
I269
sg21
I0
sg22
I0
sg23
I0
sg24
I0
sbssg38
S'D\x8fwVf\x1a&&\xfeN\xbd\xe2H\xc05a'
p198
ssS'geolocator_app_tests_tests'
p199
(dp200
g6
(dp201
g143
S'geolocator_app_tests_tests.html'
p202
sg145
S'geolocator/app/tests/tests'
p203
sg147
g13
(g14
g15
NtRp204
(dp205
g18
I1
sg19
I0
sg20
I0
sg21
I0
sg22
I0
sg23
I0
sg24
I0
sbssg25
S'Pr\x88\xff\xbe\x1e\xd0C\xbb"!\xda\x0c)PA'
p206
sssS'version'
p207
S'3.7.1'
p208
sS'settings'
p209
S'\xb1\xc9\xc1q\xfd!\xfcZ\xdb\xf9\x10\x98\xe7\x9e\xa7]'
p210
sS'format'
p211
I1
s.