(dp1
S'files'
p2
(dp3
S'geolocator_app_geolocator'
p4
(dp5
S'index'
p6
(dp7
S'html_filename'
p8
S'geolocator_app_geolocator.html'
p9
sS'name'
p10
S'geolocator/app/geolocator'
p11
sS'nums'
p12
ccopy_reg
_reconstructor
p13
(ccoverage.results
Numbers
p14
c__builtin__
object
p15
NtRp16
(dp17
S'n_files'
p18
I1
sS'n_branches'
p19
I0
sS'n_statements'
p20
I228
sS'n_excluded'
p21
I0
sS'n_partial_branches'
p22
I0
sS'n_missing'
p23
I37
sS'n_missing_branches'
p24
I0
sbssS'hash'
p25
S'\xee\x03kS\xacw\xbc\x92c\xa2\x1e`\xf9M<q'
p26
ssS'geolocator_app_tests_test_geolocator'
p27
(dp28
S'index'
p29
(dp30
S'html_filename'
p31
S'geolocator_app_tests_test_geolocator.html'
p32
sS'name'
p33
S'geolocator/app/tests/test_geolocator'
p34
sS'nums'
p35
g13
(g14
g15
NtRp36
(dp37
g18
I1
sg19
I0
sg20
I313
sg21
I0
sg22
I0
sg23
I8
sg24
I0
sbssS'hash'
p38
S'\xf0&&\xcb\xd8\xb6io\xc0\xc9\x14t,Y\xba\xd8'
p39
ssS'geolocator_app_tests_test_weighter'
p40
(dp41
g29
(dp42
g8
S'geolocator_app_tests_test_weighter.html'
p43
sg10
S'geolocator/app/tests/test_weighter'
p44
sg12
g13
(g14
g15
NtRp45
(dp46
g18
I1
sg19
I0
sg20
I670
sg21
I0
sg22
I0
sg23
I1
sg24
I0
sbssg38
S'}o\\\x14\xef\x9b\xd4\x1c\xec\xe1\x85\x97\xfe\xc2\x86\xcc'
p47
ssS'geolocator_app___init__'
p48
(dp49
g6
(dp50
S'html_filename'
p51
S'geolocator_app___init__.html'
p52
sS'name'
p53
S'geolocator/app/__init__'
p54
sS'nums'
p55
g13
(g14
g15
NtRp56
(dp57
g18
I1
sg19
I0
sg20
I12
sg21
I0
sg22
I0
sg23
I0
sg24
I0
sbssg25
S'\xae\xc0[\x8e\xdc@Aej\\nn\xf2\xd6\xd3,'
p58
ssS'geolocator_app_tests_test_models'
p59
(dp60
S'index'
p61
(dp62
g8
S'geolocator_app_tests_test_models.html'
p63
sg10
S'geolocator/app/tests/test_models'
p64
sg12
g13
(g14
g15
NtRp65
(dp66
g18
I1
sg19
I0
sg20
I91
sg21
I0
sg22
I0
sg23
I0
sg24
I0
sbssS'hash'
p67
S'\x0fc\x9f\xb0{\x02\xba\x1b\xce\xb0[\xde\x9b}\x97\xc1'
p68
ssS'geolocator_app_nlp'
p69
(dp70
g6
(dp71
S'html_filename'
p72
S'geolocator_app_nlp.html'
p73
sS'name'
p74
S'geolocator/app/nlp'
p75
sS'nums'
p76
g13
(g14
g15
NtRp77
(dp78
g18
I1
sg19
I0
sg20
I108
sg21
I0
sg22
I0
sg23
I0
sg24
I0
sbssg25
S'd\xc9\xec\x97\xbd\xae\xdes\x15D\xc7L\xe8\xfe]r'
p79
ssS'geolocator_app_views'
p80
(dp81
g6
(dp82
g8
S'geolocator_app_views.html'
p83
sg10
S'geolocator/app/views'
p84
sg12
g13
(g14
g15
NtRp85
(dp86
g18
I1
sg19
I0
sg20
I76
sg21
I0
sg22
I0
sg23
I56
sg24
I0
sbssg25
S'-\xfd\x9b\xd1\xb3|\xeeQ\xbd\xe4\x90\xc8\xc3\xb2\x1e\x00'
p87
ssS'geolocator_config'
p88
(dp89
g6
(dp90
S'html_filename'
p91
S'geolocator_config.html'
p92
sS'name'
p93
S'geolocator/config'
p94
sS'nums'
p95
g13
(g14
g15
NtRp96
(dp97
g18
I1
sg19
I0
sg20
I13
sg21
I0
sg22
I0
sg23
I0
sg24
I0
sbssg25
S'\xb5K\x14S\x9a\x0e\x9e\xa8\x15\xa5\xd1\xb0g,\xddC'
p98
ssS'geolocator_app_tests_test_views_1'
p99
(dp100
S'index'
p101
(dp102
g8
S'geolocator_app_tests_test_views_1.html'
p103
sg10
S'geolocator/app/tests/test_views_1'
p104
sg12
g13
(g14
g15
NtRp105
(dp106
g18
I1
sg19
I0
sg20
I43
sg21
I0
sg22
I0
sg23
I0
sg24
I0
sbssS'hash'
p107
S'\x0b\xbb\xe8\x8b\x9f\xd9\xde"\xe8\xcf=n{\xdd\x99\xdc'
p108
ssS'geolocator_app_tests___init__'
p109
(dp110
g6
(dp111
g51
S'geolocator_app_tests___init__.html'
p112
sg53
S'geolocator/app/tests/__init__'
p113
sg55
g13
(g14
g15
NtRp114
(dp115
g18
I1
sg19
I0
sg20
I2
sg21
I0
sg22
I0
sg23
I0
sg24
I0
sbssg25
S'\x1a7\xc7i\xc3X\xa5\xc4\x03\xd0\x897\xb1\xb1\xd7@'
p116
ssS'geolocator_app_models'
p117
(dp118
g6
(dp119
g8
S'geolocator_app_models.html'
p120
sg10
S'geolocator/app/models'
p121
sg12
g13
(g14
g15
NtRp122
(dp123
g18
I1
sg19
I0
sg20
I30
sg21
I0
sg22
I0
sg23
I0
sg24
I0
sbssg25
S'\xb7f\x1a\xf6\xeb\xc2m\x85\nqrE\x9a3\xe8\x17'
p124
ssS'geolocator_app_tests_test_nlp'
p125
(dp126
g6
(dp127
g8
S'geolocator_app_tests_test_nlp.html'
p128
sg10
S'geolocator/app/tests/test_nlp'
p129
sg12
g13
(g14
g15
NtRp130
(dp131
g18
I1
sg19
I0
sg20
I237
sg21
I0
sg22
I0
sg23
I0
sg24
I0
sbssg25
S'\xab\xed\x8b\xd2\x1c\xb58\xde\xbcl"\x8d1\x87"`'
p132
ssS'geolocator_app_tests_test_geolocator_2'
p133
(dp134
S'index'
p135
(dp136
g8
S'geolocator_app_tests_test_geolocator_2.html'
p137
sg10
S'geolocator/app/tests/test_geolocator_2'
p138
sg12
g13
(g14
g15
NtRp139
(dp140
g18
I1
sg19
I0
sg20
I112
sg21
I0
sg22
I0
sg23
I13
sg24
I0
sbssS'hash'
p141
S'CuBC\x02\x1b\x00\xff\xf6I\xed\xa7\xb2-\x1a\x8e'
p142
ssS'geolocator_app_services'
p143
(dp144
g6
(dp145
S'html_filename'
p146
S'geolocator_app_services.html'
p147
sS'name'
p148
S'geolocator/app/services'
p149
sS'nums'
p150
g13
(g14
g15
NtRp151
(dp152
g18
I1
sg19
I0
sg20
I8
sg21
I0
sg22
I0
sg23
I1
sg24
I0
sbssg25
S'\xa7m&$%7B\xf7\xae\xf3A\x16\xdbI\xb4_'
p153
ssS'geolocator_run'
p154
(dp155
g6
(dp156
S'html_filename'
p157
S'geolocator_run.html'
p158
sS'name'
p159
S'geolocator/run'
p160
sS'nums'
p161
g13
(g14
g15
NtRp162
(dp163
g18
I1
sg19
I0
sg20
I10
sg21
I0
sg22
I0
sg23
I10
sg24
I0
sbssg25
S'\x1dt\xec\xb8\x0e\x8a\xd9\xe2:\xbb\xdeC\xe3\xac\xdau'
p164
ssS'geolocator_app_tests_test_nlp_validation'
p165
(dp166
g135
(dp167
g8
S'geolocator_app_tests_test_nlp_validation.html'
p168
sg10
S'geolocator/app/tests/test_nlp_validation'
p169
sg12
g13
(g14
g15
NtRp170
(dp171
g18
I1
sg19
I0
sg20
I93
sg21
I0
sg22
I0
sg23
I0
sg24
I0
sbssg141
S'\xe6\xca\xd3Z\x0c\xe8\xa8\xe4\x0e\xad\x0b\xb9\xa5F\xbe\xa1'
p172
ssS'geolocator_test_config'
p173
(dp174
S'index'
p175
(dp176
g8
S'geolocator_test_config.html'
p177
sg10
S'geolocator/test_config'
p178
sg12
g13
(g14
g15
NtRp179
(dp180
g18
I1
sg19
I0
sg20
I18
sg21
I0
sg22
I0
sg23
I0
sg24
I0
sbssS'hash'
p181
S'\x94AQ\rE\r\xec\xdd\xe3\tT\xd2;\xea1z'
p182
ssS'geolocator_app_tests_test_nlp_old'
p183
(dp184
g6
(dp185
g146
S'geolocator_app_tests_test_nlp_old.html'
p186
sg148
S'geolocator/app/tests/test_nlp_old'
p187
sg150
g13
(g14
g15
NtRp188
(dp189
g18
I1
sg19
I0
sg20
I0
sg21
I0
sg22
I0
sg23
I0
sg24
I0
sbssg25
S'H\xc45\xebeG\xdfO\x93h\x98X\xb6\xcc#\x94'
p190
ssS'geolocator_app_weighter'
p191
(dp192
g29
(dp193
g8
S'geolocator_app_weighter.html'
p194
sg10
S'geolocator/app/weighter'
p195
sg12
g13
(g14
g15
NtRp196
(dp197
g18
I1
sg19
I0
sg20
I269
sg21
I0
sg22
I0
sg23
I0
sg24
I0
sbssg38
S'D\x8fwVf\x1a&&\xfeN\xbd\xe2H\xc05a'
p198
ssS'geolocator_app_tests_tests'
p199
(dp200
g6
(dp201
g146
S'geolocator_app_tests_tests.html'
p202
sg148
S'geolocator/app/tests/tests'
p203
sg150
g13
(g14
g15
NtRp204
(dp205
g18
I1
sg19
I0
sg20
I0
sg21
I0
sg22
I0
sg23
I0
sg24
I0
sbssg25
S'Pr\x88\xff\xbe\x1e\xd0C\xbb"!\xda\x0c)PA'
p206
sssS'version'
p207
S'3.7.1'
p208
sS'settings'
p209
S'\xb1\xc9\xc1q\xfd!\xfcZ\xdb\xf9\x10\x98\xe7\x9e\xa7]'
p210
sS'format'
p211
I1
s.